#include <math.h>
#include <stdio.h>
#include <stdlib.h>
#include <string.h>

int main()
{
    int sz[1000][1000];
    int ROW,COL,ROW1,COL1,col,row;
    int n,k=0;
int T=0;
int a,b;
    scanf("%d",&n);
    ROW=n-1;
    COL=n-1;
    
    for(row=0;row<ROW;row++){
                             for(col=0;col<COL;col++){
                                                     scanf("%d",&sz[row][col]);
                                                            }
                                                            }
    for(row=0;row<ROW;row++){
                             for(col=0;col<COL;col++){
                                                      if(T==0&&sz[row][col]==0){
                                                                          ROW1=row;
                                                                          COL1=col;
                                                                          
T=1;}
                                                            }
                                                            }
    for(row=ROW;row>=ROW1;row--){
                             for(col=COL;col>=COL1;col--){
                                                      if(T==0&&sz[row][col]==0){
                                                                          COL=col;
ROW=row;
                                                                          
T=1;
                                                                          }
                                                                          }
                                                                          }

a=ROW-ROW1-3;
b=COL-COL1-1;
k=a*b;
    printf("%d",k);
    return 0;    
                             
}

