; ModuleID = '15/1701.c'
source_filename = "15/1701.c"
target datalayout = "e-m:e-p270:32:32-p271:32:32-p272:64:64-i64:64-f80:128-n8:16:32:64-S128"
target triple = "x86_64-pc-linux-gnu"

@.str = private unnamed_addr constant [3 x i8] c"%d\00", align 1

; Function Attrs: noinline nounwind uwtable
define dso_local i32 @main() #0 {
  %1 = alloca i32, align 4
  %2 = alloca [1000 x [1000 x i32]], align 16
  %3 = alloca i32, align 4
  %4 = alloca i32, align 4
  %5 = alloca i32, align 4
  %6 = alloca i32, align 4
  %7 = alloca i32, align 4
  %8 = alloca i32, align 4
  %9 = alloca i32, align 4
  %10 = alloca i32, align 4
  %11 = alloca i32, align 4
  %12 = alloca i32, align 4
  %13 = alloca i32, align 4
  store i32 0, i32* %1, align 4
  store i32 0, i32* %10, align 4
  store i32 0, i32* %11, align 4
  %14 = call i32 (i8*, ...) @__isoc99_scanf(i8* getelementptr inbounds ([3 x i8], [3 x i8]* @.str, i64 0, i64 0), i32* %9)
  %15 = load i32, i32* %9, align 4
  %16 = sub nsw i32 %15, 1
  store i32 %16, i32* %3, align 4
  %17 = load i32, i32* %9, align 4
  %18 = sub nsw i32 %17, 1
  store i32 %18, i32* %4, align 4
  store i32 0, i32* %8, align 4
  br label %19

19:                                               ; preds = %40, %0
  %20 = load i32, i32* %8, align 4
  %21 = load i32, i32* %3, align 4
  %22 = icmp slt i32 %20, %21
  br i1 %22, label %23, label %43

23:                                               ; preds = %19
  store i32 0, i32* %7, align 4
  br label %24

24:                                               ; preds = %36, %23
  %25 = load i32, i32* %7, align 4
  %26 = load i32, i32* %4, align 4
  %27 = icmp slt i32 %25, %26
  br i1 %27, label %28, label %39

28:                                               ; preds = %24
  %29 = load i32, i32* %8, align 4
  %30 = sext i32 %29 to i64
  %31 = getelementptr inbounds [1000 x [1000 x i32]], [1000 x [1000 x i32]]* %2, i64 0, i64 %30
  %32 = load i32, i32* %7, align 4
  %33 = sext i32 %32 to i64
  %34 = getelementptr inbounds [1000 x i32], [1000 x i32]* %31, i64 0, i64 %33
  %35 = call i32 (i8*, ...) @__isoc99_scanf(i8* getelementptr inbounds ([3 x i8], [3 x i8]* @.str, i64 0, i64 0), i32* %34)
  br label %36

36:                                               ; preds = %28
  %37 = load i32, i32* %7, align 4
  %38 = add nsw i32 %37, 1
  store i32 %38, i32* %7, align 4
  br label %24

39:                                               ; preds = %24
  br label %40

40:                                               ; preds = %39
  %41 = load i32, i32* %8, align 4
  %42 = add nsw i32 %41, 1
  store i32 %42, i32* %8, align 4
  br label %19

43:                                               ; preds = %19
  store i32 0, i32* %8, align 4
  br label %44

44:                                               ; preds = %73, %43
  %45 = load i32, i32* %8, align 4
  %46 = load i32, i32* %3, align 4
  %47 = icmp slt i32 %45, %46
  br i1 %47, label %48, label %76

48:                                               ; preds = %44
  store i32 0, i32* %7, align 4
  br label %49

49:                                               ; preds = %69, %48
  %50 = load i32, i32* %7, align 4
  %51 = load i32, i32* %4, align 4
  %52 = icmp slt i32 %50, %51
  br i1 %52, label %53, label %72

53:                                               ; preds = %49
  %54 = load i32, i32* %11, align 4
  %55 = icmp eq i32 %54, 0
  br i1 %55, label %56, label %68

56:                                               ; preds = %53
  %57 = load i32, i32* %8, align 4
  %58 = sext i32 %57 to i64
  %59 = getelementptr inbounds [1000 x [1000 x i32]], [1000 x [1000 x i32]]* %2, i64 0, i64 %58
  %60 = load i32, i32* %7, align 4
  %61 = sext i32 %60 to i64
  %62 = getelementptr inbounds [1000 x i32], [1000 x i32]* %59, i64 0, i64 %61
  %63 = load i32, i32* %62, align 4
  %64 = icmp eq i32 %63, 0
  br i1 %64, label %65, label %68

65:                                               ; preds = %56
  %66 = load i32, i32* %8, align 4
  store i32 %66, i32* %5, align 4
  %67 = load i32, i32* %7, align 4
  store i32 %67, i32* %6, align 4
  store i32 1, i32* %11, align 4
  br label %68

68:                                               ; preds = %65, %56, %53
  br label %69

69:                                               ; preds = %68
  %70 = load i32, i32* %7, align 4
  %71 = add nsw i32 %70, 1
  store i32 %71, i32* %7, align 4
  br label %49

72:                                               ; preds = %49
  br label %73

73:                                               ; preds = %72
  %74 = load i32, i32* %8, align 4
  %75 = add nsw i32 %74, 1
  store i32 %75, i32* %8, align 4
  br label %44

76:                                               ; preds = %44
  %77 = load i32, i32* %3, align 4
  store i32 %77, i32* %8, align 4
  br label %78

78:                                               ; preds = %108, %76
  %79 = load i32, i32* %8, align 4
  %80 = load i32, i32* %5, align 4
  %81 = icmp sge i32 %79, %80
  br i1 %81, label %82, label %111

82:                                               ; preds = %78
  %83 = load i32, i32* %4, align 4
  store i32 %83, i32* %7, align 4
  br label %84

84:                                               ; preds = %104, %82
  %85 = load i32, i32* %7, align 4
  %86 = load i32, i32* %6, align 4
  %87 = icmp sge i32 %85, %86
  br i1 %87, label %88, label %107

88:                                               ; preds = %84
  %89 = load i32, i32* %11, align 4
  %90 = icmp eq i32 %89, 0
  br i1 %90, label %91, label %103

91:                                               ; preds = %88
  %92 = load i32, i32* %8, align 4
  %93 = sext i32 %92 to i64
  %94 = getelementptr inbounds [1000 x [1000 x i32]], [1000 x [1000 x i32]]* %2, i64 0, i64 %93
  %95 = load i32, i32* %7, align 4
  %96 = sext i32 %95 to i64
  %97 = getelementptr inbounds [1000 x i32], [1000 x i32]* %94, i64 0, i64 %96
  %98 = load i32, i32* %97, align 4
  %99 = icmp eq i32 %98, 0
  br i1 %99, label %100, label %103

100:                                              ; preds = %91
  %101 = load i32, i32* %7, align 4
  store i32 %101, i32* %4, align 4
  %102 = load i32, i32* %8, align 4
  store i32 %102, i32* %3, align 4
  store i32 1, i32* %11, align 4
  br label %103

103:                                              ; preds = %100, %91, %88
  br label %104

104:                                              ; preds = %103
  %105 = load i32, i32* %7, align 4
  %106 = add nsw i32 %105, -1
  store i32 %106, i32* %7, align 4
  br label %84

107:                                              ; preds = %84
  br label %108

108:                                              ; preds = %107
  %109 = load i32, i32* %8, align 4
  %110 = add nsw i32 %109, -1
  store i32 %110, i32* %8, align 4
  br label %78

111:                                              ; preds = %78
  %112 = load i32, i32* %3, align 4
  %113 = load i32, i32* %5, align 4
  %114 = sub nsw i32 %112, %113
  %115 = sub nsw i32 %114, 3
  store i32 %115, i32* %12, align 4
  %116 = load i32, i32* %4, align 4
  %117 = load i32, i32* %6, align 4
  %118 = sub nsw i32 %116, %117
  %119 = sub nsw i32 %118, 1
  store i32 %119, i32* %13, align 4
  %120 = load i32, i32* %12, align 4
  %121 = load i32, i32* %13, align 4
  %122 = mul nsw i32 %120, %121
  store i32 %122, i32* %10, align 4
  %123 = load i32, i32* %10, align 4
  %124 = call i32 (i8*, ...) @printf(i8* getelementptr inbounds ([3 x i8], [3 x i8]* @.str, i64 0, i64 0), i32 %123)
  ret i32 0
}

declare dso_local i32 @__isoc99_scanf(i8*, ...) #1

declare dso_local i32 @printf(i8*, ...) #1


!llvm.module.flags = !{!0}
!llvm.ident = !{!1}

!0 = !{i32 1, !"wchar_size", i32 4}
!1 = !{!"clang version 10.0.0-4ubuntu1 "}
